target datalayout = "e-m:e-p270:32:32-p271:32:32-p272:64:64-i64:64-i128:128-f80:128-n8:16:32:64-S128"
target triple = "x86_64-pc-linux-gnu"

%struct.CVodeMemRec = type { ptr, double, ptr, ptr, i32, i32, double, double, ptr, i32, i32, ptr, ptr, i32, [13 x ptr], ptr, ptr, ptr, ptr, ptr, ptr, ptr, ptr, ptr, i32, i32, double, i32, i32, i32, i32, i32, double, double, double, double, double, double, double, double, [14 x double], [6 x double], [13 x double], double, double, double, double, double, double, double, i32, double, i32, i64, i32, i32, i32, double, double, double, double, double, double, double, double, double, double, double, double, i64, i32, i64, i64, i64, i64, i64, i64, i64, i32, double, double, double, i64, i64, i64, i64, ptr, i32, ptr, i32, ptr, ptr, ptr, ptr, ptr, i64, double, i32, i64, double, double, double, i32, double, i32, i32, i32, i32, i32, ptr, i64, i32, [6 x [4 x double]], i32, i64, ptr, i32, ptr, ptr, double, double, double, ptr, ptr, ptr, double, double, i32, i32, i64, ptr, i32, ptr, i32, i32, [13 x double], [13 x double], [13 x ptr], i32 }
%struct.CVLsMemRec = type { i32, i32, i32, ptr, ptr, i32, double, i32, double, double, ptr, ptr, ptr, ptr, ptr, ptr, ptr, i64, i64, i64, i64, i64, i64, i64, i64, i64, i64, double, ptr, ptr, ptr, ptr, i32, ptr, ptr, ptr, ptr, i32, ptr, ptr, i32 }

@.str = private unnamed_addr constant [116 x i8] c"generated/home/dtcxzyw/WorkSpace/Projects/compilers/llvm-opt-benchmark/bench/sundials/sundials/src/cvode/cvode_ls.c\00", align 1
@.str.1 = private unnamed_addr constant [27 x i8] c"Integrator memory is NULL.\00", align 1
@.str.30 = private unnamed_addr constant [30 x i8] c"Linear solver memory is NULL.\00", align 1
@__func__.cvLsDQJtimes = private unnamed_addr constant [13 x i8] c"cvLsDQJtimes\00", align 1

; Function Attrs: nounwind uwtable
define i32 @cvLs_AccessLMem(ptr noundef %0, ptr noundef %1, ptr noundef %2, ptr noundef %3) #0 {
  %5 = alloca i32, align 4
  %6 = alloca ptr, align 8
  %7 = alloca ptr, align 8
  %8 = alloca ptr, align 8
  %9 = alloca ptr, align 8
  store ptr %0, ptr %6, align 8, !tbaa !3
  store ptr %1, ptr %7, align 8, !tbaa !117
  store ptr %2, ptr %8, align 8, !tbaa !119
  store ptr %3, ptr %9, align 8, !tbaa !121
  %10 = load ptr, ptr %6, align 8, !tbaa !3
  %11 = icmp eq ptr %10, null
  br i1 %11, label %12, label %14

12:                                               ; preds = %4
  %13 = load ptr, ptr %7, align 8, !tbaa !117
  call void (ptr, i32, i32, ptr, ptr, ptr, ...) @cvProcessError(ptr noundef null, i32 noundef -1, i32 noundef 1930, ptr noundef %13, ptr noundef @.str, ptr noundef @.str.1)
  store i32 -1, ptr %5, align 4
  br label %32

14:                                               ; preds = %4
  %15 = load ptr, ptr %6, align 8, !tbaa !3
  %16 = load ptr, ptr %8, align 8, !tbaa !119
  store ptr %15, ptr %16, align 8, !tbaa !11
  %17 = load ptr, ptr %8, align 8, !tbaa !119
  %18 = load ptr, ptr %17, align 8, !tbaa !11
  %19 = getelementptr inbounds nuw %struct.CVodeMemRec, ptr %18, i32 0, i32 94
  %20 = load ptr, ptr %19, align 8, !tbaa !79
  %21 = icmp eq ptr %20, null
  br i1 %21, label %22, label %26

22:                                               ; preds = %14
  %23 = load ptr, ptr %8, align 8, !tbaa !119
  %24 = load ptr, ptr %23, align 8, !tbaa !11
  %25 = load ptr, ptr %7, align 8, !tbaa !117
  call void (ptr, i32, i32, ptr, ptr, ptr, ...) @cvProcessError(ptr noundef %24, i32 noundef -2, i32 noundef 1937, ptr noundef %25, ptr noundef @.str, ptr noundef @.str.30)
  store i32 -2, ptr %5, align 4
  br label %32

26:                                               ; preds = %14
  %27 = load ptr, ptr %8, align 8, !tbaa !119
  %28 = load ptr, ptr %27, align 8, !tbaa !11
  %29 = getelementptr inbounds nuw %struct.CVodeMemRec, ptr %28, i32 0, i32 94
  %30 = load ptr, ptr %29, align 8, !tbaa !79
  %31 = load ptr, ptr %9, align 8, !tbaa !121
  store ptr %30, ptr %31, align 8, !tbaa !43
  store i32 0, ptr %5, align 4
  br label %32

32:                                               ; preds = %26, %22, %12
  %33 = load i32, ptr %5, align 4
  ret i32 %33
}

; Function Attrs: nounwind uwtable
define i32 @cvLsDQJtimes(ptr noundef %0, ptr noundef %1, double noundef %2, ptr noundef %3, ptr noundef %4, ptr noundef %5, ptr noundef %6) #0 {
  %8 = alloca i32, align 4
  %9 = alloca ptr, align 8
  %10 = alloca ptr, align 8
  %11 = alloca double, align 8
  %12 = alloca ptr, align 8
  %13 = alloca ptr, align 8
  %14 = alloca ptr, align 8
  %15 = alloca ptr, align 8
  %16 = alloca ptr, align 8
  %17 = alloca ptr, align 8
  %18 = alloca double, align 8
  %19 = alloca double, align 8
  %20 = alloca i32, align 4
  %21 = alloca i32, align 4
  %22 = alloca i32, align 4
  store ptr %0, ptr %9, align 8, !tbaa !85
  store ptr %1, ptr %10, align 8, !tbaa !85
  store double %2, ptr %11, align 8, !tbaa !91
  store ptr %3, ptr %12, align 8, !tbaa !85
  store ptr %4, ptr %13, align 8, !tbaa !85
  store ptr %5, ptr %14, align 8, !tbaa !3
  store ptr %6, ptr %15, align 8, !tbaa !85
  call void @llvm.lifetime.start.p0(i64 8, ptr %16) #7
  call void @llvm.lifetime.start.p0(i64 8, ptr %17) #7
  call void @llvm.lifetime.start.p0(i64 8, ptr %18) #7
  call void @llvm.lifetime.start.p0(i64 8, ptr %19) #7
  call void @llvm.lifetime.start.p0(i64 4, ptr %20) #7
  call void @llvm.lifetime.start.p0(i64 4, ptr %21) #7
  %23 = load ptr, ptr %14, align 8, !tbaa !3
  %24 = call i32 @cvLs_AccessLMem(ptr noundef %23, ptr noundef @__func__.cvLsDQJtimes, ptr noundef %16, ptr noundef %17)
  store i32 %24, ptr %21, align 4, !tbaa !20
  %25 = load i32, ptr %21, align 4, !tbaa !20
  %26 = icmp ne i32 %25, 0
  br i1 %26, label %27, label %29

27:                                               ; preds = %7
  %28 = load i32, ptr %21, align 4, !tbaa !20
  store i32 %28, ptr %8, align 4
  store i32 1, ptr %22, align 4
  br label %84

29:                                               ; preds = %7
  %30 = load ptr, ptr %9, align 8, !tbaa !85
  %31 = load ptr, ptr %16, align 8, !tbaa !11
  %32 = getelementptr inbounds nuw %struct.CVodeMemRec, ptr %31, i32 0, i32 15
  %33 = load ptr, ptr %32, align 8, !tbaa !114
  %34 = call double @N_VWrmsNorm(ptr noundef %30, ptr noundef %33)
  %35 = fdiv double 1.000000e+00, %34
  store double %35, ptr %18, align 8, !tbaa !91
  store i32 0, ptr %20, align 4, !tbaa !20
  br label %36

36:                                               ; preds = %68, %29
  %37 = load i32, ptr %20, align 4, !tbaa !20
  %38 = icmp slt i32 %37, 3
  br i1 %38, label %39, label %71

39:                                               ; preds = %36
  %40 = load double, ptr %18, align 8, !tbaa !91
  %41 = load ptr, ptr %9, align 8, !tbaa !85
  %42 = load ptr, ptr %12, align 8, !tbaa !85
  %43 = load ptr, ptr %15, align 8, !tbaa !85
  call void @N_VLinearSum(double noundef %40, ptr noundef %41, double noundef 1.000000e+00, ptr noundef %42, ptr noundef %43)
  %44 = load ptr, ptr %17, align 8, !tbaa !43
  %45 = getelementptr inbounds nuw %struct.CVLsMemRec, ptr %44, i32 0, i32 35
  %46 = load ptr, ptr %45, align 8, !tbaa !56
  %47 = load double, ptr %11, align 8, !tbaa !91
  %48 = load ptr, ptr %15, align 8, !tbaa !85
  %49 = load ptr, ptr %10, align 8, !tbaa !85
  %50 = load ptr, ptr %16, align 8, !tbaa !11
  %51 = getelementptr inbounds nuw %struct.CVodeMemRec, ptr %50, i32 0, i32 3
  %52 = load ptr, ptr %51, align 8, !tbaa !64
  %53 = call i32 %46(double noundef %47, ptr noundef %48, ptr noundef %49, ptr noundef %52)
  store i32 %53, ptr %21, align 4, !tbaa !20
  %54 = load ptr, ptr %17, align 8, !tbaa !43
  %55 = getelementptr inbounds nuw %struct.CVLsMemRec, ptr %54, i32 0, i32 19
  %56 = load i64, ptr %55, align 8, !tbaa !115
  %57 = add nsw i64 %56, 1
  store i64 %57, ptr %55, align 8, !tbaa !115
  %58 = load i32, ptr %21, align 4, !tbaa !20
  %59 = icmp eq i32 %58, 0
  br i1 %59, label %60, label %61

60:                                               ; preds = %39
  br label %71

61:                                               ; preds = %39
  %62 = load i32, ptr %21, align 4, !tbaa !20
  %63 = icmp slt i32 %62, 0
  br i1 %63, label %64, label %65

64:                                               ; preds = %61
  store i32 -1, ptr %8, align 4
  store i32 1, ptr %22, align 4
  br label %84

65:                                               ; preds = %61
  %66 = load double, ptr %18, align 8, !tbaa !91
  %67 = fmul double %66, 2.500000e-01
  store double %67, ptr %18, align 8, !tbaa !91
  br label %68

68:                                               ; preds = %65
  %69 = load i32, ptr %20, align 4, !tbaa !20
  %70 = add nsw i32 %69, 1
  store i32 %70, ptr %20, align 4, !tbaa !20
  br label %36

71:                                               ; preds = %60, %36
  %72 = load i32, ptr %21, align 4, !tbaa !20
  %73 = icmp sgt i32 %72, 0
  br i1 %73, label %74, label %75

74:                                               ; preds = %71
  store i32 1, ptr %8, align 4
  store i32 1, ptr %22, align 4
  br label %84

75:                                               ; preds = %71
  %76 = load double, ptr %18, align 8, !tbaa !91
  %77 = fdiv double 1.000000e+00, %76
  store double %77, ptr %19, align 8, !tbaa !91
  %78 = load double, ptr %19, align 8, !tbaa !91
  %79 = load ptr, ptr %10, align 8, !tbaa !85
  %80 = load double, ptr %19, align 8, !tbaa !91
  %81 = fneg double %80
  %82 = load ptr, ptr %13, align 8, !tbaa !85
  %83 = load ptr, ptr %10, align 8, !tbaa !85
  call void @N_VLinearSum(double noundef %78, ptr noundef %79, double noundef %81, ptr noundef %82, ptr noundef %83)
  store i32 0, ptr %8, align 4
  store i32 1, ptr %22, align 4
  br label %84

84:                                               ; preds = %75, %74, %64, %27
  call void @llvm.lifetime.end.p0(i64 4, ptr %21) #7
  call void @llvm.lifetime.end.p0(i64 4, ptr %20) #7
  call void @llvm.lifetime.end.p0(i64 8, ptr %19) #7
  call void @llvm.lifetime.end.p0(i64 8, ptr %18) #7
  call void @llvm.lifetime.end.p0(i64 8, ptr %17) #7
  call void @llvm.lifetime.end.p0(i64 8, ptr %16) #7
  %85 = load i32, ptr %8, align 4
  ret i32 %85
}