; Function Attrs: nounwind uwtable
define range(i32 -2, 2) i32 @cvLsDQJtimes(ptr noundef %0, ptr noundef %1, double noundef %2, ptr noundef %3, ptr noundef %4, ptr noundef %5, ptr noundef %6) #0 {
  %8 = icmp eq ptr %5, null
  br i1 %8, label %9, label %10

9:                                                ; preds = %7
  tail call void (ptr, i32, i32, ptr, ptr, ptr, ...) @cvProcessError(ptr noundef null, i32 noundef -1, i32 noundef 1930, ptr noundef nonnull @__func__.cvLsDQJtimes, ptr noundef nonnull @.str, ptr noundef nonnull @.str.1) #13
  br label %cvLs_AccessLMem.exit.thread

10:                                               ; preds = %7
  %11 = getelementptr inbounds nuw i8, ptr %5, i64 1040
  %12 = load ptr, ptr %11, align 8, !tbaa !69
  %13 = icmp eq ptr %12, null
  br i1 %13, label %14, label %cvLs_AccessLMem.exit

14:                                               ; preds = %10
  tail call void (ptr, i32, i32, ptr, ptr, ptr, ...) @cvProcessError(ptr noundef nonnull %5, i32 noundef -2, i32 noundef 1937, ptr noundef nonnull @__func__.cvLsDQJtimes, ptr noundef nonnull @.str, ptr noundef nonnull @.str.30) #13
  br label %cvLs_AccessLMem.exit.thread

cvLs_AccessLMem.exit:                             ; preds = %10
  %15 = getelementptr inbounds nuw i8, ptr %5, i64 200
  %16 = load ptr, ptr %15, align 8, !tbaa !102
  %17 = tail call double @N_VWrmsNorm(ptr noundef %0, ptr noundef %16) #13
  %18 = fdiv double 1.000000e+00, %17
  %19 = getelementptr inbounds nuw i8, ptr %12, i64 272
  %20 = getelementptr inbounds nuw i8, ptr %5, i64 24
  %21 = getelementptr inbounds nuw i8, ptr %12, i64 144
  br label %22

22:                                               ; preds = %cvLs_AccessLMem.exit, %31
  %.02344 = phi i32 [ 0, %cvLs_AccessLMem.exit ], [ %33, %31 ]
  %.02543 = phi double [ %18, %cvLs_AccessLMem.exit ], [ %32, %31 ]
  tail call void @N_VLinearSum(double noundef %.02543, ptr noundef %0, double noundef 1.000000e+00, ptr noundef %3, ptr noundef %6) #13
  %23 = load ptr, ptr %19, align 8, !tbaa !48
  %24 = load ptr, ptr %20, align 8, !tbaa !53
  %25 = tail call i32 %23(double noundef %2, ptr noundef %6, ptr noundef %1, ptr noundef %24) #13
  %26 = load i64, ptr %21, align 8, !tbaa !103
  %27 = add nsw i64 %26, 1
  store i64 %27, ptr %21, align 8, !tbaa !103
  %28 = icmp eq i32 %25, 0
  br i1 %28, label %.thread, label %29

29:                                               ; preds = %22
  %30 = icmp slt i32 %25, 0
  br i1 %30, label %cvLs_AccessLMem.exit.thread, label %31

31:                                               ; preds = %29
  %32 = fmul double %.02543, 2.500000e-01
  %33 = add nuw nsw i32 %.02344, 1
  %exitcond.not = icmp eq i32 %33, 3
  br i1 %exitcond.not, label %cvLs_AccessLMem.exit.thread, label %22

.thread:                                          ; preds = %22
  %34 = fdiv double 1.000000e+00, %.02543
  %35 = fneg double %34
  tail call void @N_VLinearSum(double noundef %34, ptr noundef %1, double noundef %35, ptr noundef %4, ptr noundef %1) #13
  br label %cvLs_AccessLMem.exit.thread

cvLs_AccessLMem.exit.thread:                      ; preds = %29, %31, %14, %9, %.thread
  %.024 = phi i32 [ 0, %.thread ], [ -2, %14 ], [ -1, %9 ], [ 1, %31 ], [ -1, %29 ]
  ret i32 %.024
}